; Function Attrs: mustprogress uwtable
define noundef zeroext i1 @_Z38grpc_gcp_rpc_protocol_versions_set_maxP29_grpc_gcp_RpcProtocolVersionsjj(ptr noundef writeonly %0, i32 noundef %1, i32 noundef %2) local_unnamed_addr #0 personality ptr @__gxx_personality_v0 {
  %4 = alloca %"class.absl::lts_20240722::log_internal::LogMessage", align 8
  %5 = icmp ne ptr %0, null
  br i1 %5, label %9, label %6

6:                                                ; preds = %3
  call void @llvm.lifetime.start.p0(i64 16, ptr nonnull %4) #11
  call void @_ZN4absl12lts_2024072212log_internal10LogMessageC1EPKciNS2_8ErrorTagE(ptr noundef nonnull align 8 dereferenceable(16) %4, ptr noundef nonnull @.str, i32 noundef 30) #12
  invoke void @_ZN4absl12lts_2024072212log_internal10LogMessage19CopyToEncodedBufferILNS2_10StringTypeE0EEEvSt17basic_string_viewIcSt11char_traitsIcEE(ptr noundef nonnull align 8 dereferenceable(16) %4, i64 64, ptr nonnull @.str.1)
          to label %_ZN4absl12lts_2024072212log_internal10LogMessagelsILi65EEERS2_RAT__Kc.exit unwind label %7

_ZN4absl12lts_2024072212log_internal10LogMessagelsILi65EEERS2_RAT__Kc.exit: ; preds = %6
  call void @_ZN4absl12lts_2024072212log_internal10LogMessageD1Ev(ptr noundef nonnull align 8 dereferenceable(16) %4) #13
  call void @llvm.lifetime.end.p0(i64 16, ptr nonnull %4) #11
  br label %11

7:                                                ; preds = %6
  %8 = landingpad { ptr, i32 }
          cleanup
  call void @_ZN4absl12lts_2024072212log_internal10LogMessageD1Ev(ptr noundef nonnull align 8 dereferenceable(16) %4) #13
  call void @llvm.lifetime.end.p0(i64 16, ptr nonnull %4) #11
  resume { ptr, i32 } %8

9:                                                ; preds = %3
  store i32 %1, ptr %0, align 4, !tbaa !3
  %10 = getelementptr inbounds nuw i8, ptr %0, i64 4
  store i32 %2, ptr %10, align 4, !tbaa !9
  br label %11

11:                                               ; preds = %9, %_ZN4absl12lts_2024072212log_internal10LogMessagelsILi65EEERS2_RAT__Kc.exit
  ret i1 %5
}